target datalayout = "e-m:e-p270:32:32-p271:32:32-p272:64:64-i64:64-i128:128-f80:128-n8:16:32:64-S128"
target triple = "x86_64-pc-linux-gnu"

%struct.PyVarObject = type { %struct._object, i64 }
%struct._object = type { %union.anon, ptr }
%union.anon = type { i64 }
%struct._ts = type { ptr, ptr, ptr, i64, %struct.anon.5, i32, i32, i32, i32, i32, i32, i32, i32, ptr, ptr, ptr, ptr, ptr, ptr, ptr, ptr, i32, ptr, i64, i64, ptr, i64, i32, ptr, ptr, ptr, i64, i64, ptr, ptr, ptr, %struct._err_stackitem, ptr, i64, ptr, ptr }
%struct.anon.5 = type { i32 }
%struct._err_stackitem = type { ptr, ptr }
%struct.PyMethodDef = type { ptr, ptr, i32, ptr }
%struct.PyCFunctionObject = type { %struct._object, ptr, ptr, ptr, ptr, ptr }
%struct.anon = type { i32, i32 }

@_Py_tss_tstate = external thread_local global ptr, align 8
@PyExc_TypeError = external global ptr, align 8
@.str.22 = private unnamed_addr constant [30 x i8] c"%U takes no keyword arguments\00", align 1
@.str.23 = private unnamed_addr constant [31 x i8] c" while calling a Python object\00", align 1
@.str.25 = private unnamed_addr constant [42 x i8] c"%U takes exactly one argument (%zd given)\00", align 1

; Function Attrs: inlinehint nounwind uwtable
define internal i32 @_Py_MakeRecCheck(ptr noundef %0) #3 {
  %2 = alloca ptr, align 8
  store ptr %0, ptr %2, align 8, !tbaa !32
  %3 = load ptr, ptr %2, align 8, !tbaa !32
  %4 = getelementptr inbounds nuw %struct._ts, ptr %3, i32 0, i32 9
  %5 = load i32, ptr %4, align 4, !tbaa !114
  %6 = add i32 %5, -1
  store i32 %6, ptr %4, align 4, !tbaa !114
  %7 = icmp slt i32 %5, 0
  %8 = zext i1 %7 to i32
  ret i32 %8
}

; Function Attrs: inlinehint nounwind uwtable
define internal i64 @Py_SIZE(ptr noundef %0) #3 {
  %2 = alloca ptr, align 8
  store ptr %0, ptr %2, align 8, !tbaa !9
  %3 = load ptr, ptr %2, align 8, !tbaa !9
  %4 = getelementptr inbounds nuw %struct.PyVarObject, ptr %3, i32 0, i32 1
  %5 = load i64, ptr %4, align 8, !tbaa !130
  ret i64 %5
}

; Function Attrs: inlinehint nounwind uwtable
define internal ptr @PyCFunction_GET_FUNCTION(ptr noundef %0) #3 {
  %2 = alloca ptr, align 8
  store ptr %0, ptr %2, align 8, !tbaa !9
  %3 = load ptr, ptr %2, align 8, !tbaa !9
  %4 = getelementptr inbounds nuw %struct.PyCFunctionObject, ptr %3, i32 0, i32 1
  %5 = load ptr, ptr %4, align 8, !tbaa !24
  %6 = getelementptr inbounds nuw %struct.PyMethodDef, ptr %5, i32 0, i32 1
  %7 = load ptr, ptr %6, align 8, !tbaa !113
  ret ptr %7
}

; Function Attrs: inlinehint nounwind uwtable
define internal i32 @_Py_EnterRecursiveCallTstate(ptr noundef %0, ptr noundef %1) #3 {
  %3 = alloca ptr, align 8
  %4 = alloca ptr, align 8
  store ptr %0, ptr %3, align 8, !tbaa !32
  store ptr %1, ptr %4, align 8, !tbaa !125
  %5 = load ptr, ptr %3, align 8, !tbaa !32
  %6 = call i32 @_Py_MakeRecCheck(ptr noundef %5)
  %7 = icmp ne i32 %6, 0
  br i1 %7, label %8, label %13

8:                                                ; preds = %2
  %9 = load ptr, ptr %3, align 8, !tbaa !32
  %10 = load ptr, ptr %4, align 8, !tbaa !125
  %11 = call i32 @_Py_CheckRecursiveCall(ptr noundef %9, ptr noundef %10)
  %12 = icmp ne i32 %11, 0
  br label %13

13:                                               ; preds = %8, %2
  %14 = phi i1 [ false, %2 ], [ %12, %8 ]
  %15 = zext i1 %14 to i32
  ret i32 %15
}

; Function Attrs: alwaysinline nounwind uwtable
define internal i32 @_Py_IsImmortal(ptr noundef %0) #4 {
  %2 = alloca ptr, align 8
  store ptr %0, ptr %2, align 8, !tbaa !9
  %3 = load ptr, ptr %2, align 8, !tbaa !9
  %4 = getelementptr inbounds nuw %struct._object, ptr %3, i32 0, i32 0
  %5 = getelementptr inbounds nuw %struct.anon, ptr %4, i32 0, i32 0
  %6 = load i32, ptr %5, align 8, !tbaa !124
  %7 = icmp slt i32 %6, 0
  %8 = zext i1 %7 to i32
  ret i32 %8
}

; Function Attrs: inlinehint nounwind uwtable
define internal i64 @PyTuple_GET_SIZE(ptr noundef %0) #3 {
  %2 = alloca ptr, align 8
  %3 = alloca ptr, align 8
  store ptr %0, ptr %2, align 8, !tbaa !9
  call void @llvm.lifetime.start.p0(i64 8, ptr %3) #6
  %4 = load ptr, ptr %2, align 8, !tbaa !9
  store ptr %4, ptr %3, align 8, !tbaa !17
  %5 = load ptr, ptr %3, align 8, !tbaa !17
  %6 = call i64 @Py_SIZE(ptr noundef %5)
  call void @llvm.lifetime.end.p0(i64 8, ptr %3) #6
  ret i64 %6
}

; Function Attrs: inlinehint nounwind uwtable
define internal void @_Py_LeaveRecursiveCallTstate(ptr noundef %0) #3 {
  %2 = alloca ptr, align 8
  store ptr %0, ptr %2, align 8, !tbaa !32
  %3 = load ptr, ptr %2, align 8, !tbaa !32
  %4 = getelementptr inbounds nuw %struct._ts, ptr %3, i32 0, i32 9
  %5 = load i32, ptr %4, align 4, !tbaa !114
  %6 = add i32 %5, 1
  store i32 %6, ptr %4, align 4, !tbaa !114
  ret void
}

; Function Attrs: inlinehint nounwind uwtable
define internal ptr @PyCFunction_GET_SELF(ptr noundef %0) #3 {
  %2 = alloca ptr, align 8
  %3 = alloca ptr, align 8
  %4 = alloca ptr, align 8
  %5 = alloca i32, align 4
  store ptr %0, ptr %3, align 8, !tbaa !9
  call void @llvm.lifetime.start.p0(i64 8, ptr %4) #6
  %6 = load ptr, ptr %3, align 8, !tbaa !9
  store ptr %6, ptr %4, align 8, !tbaa !17
  %7 = load ptr, ptr %4, align 8, !tbaa !17
  %8 = getelementptr inbounds nuw %struct.PyCFunctionObject, ptr %7, i32 0, i32 1
  %9 = load ptr, ptr %8, align 8, !tbaa !24
  %10 = getelementptr inbounds nuw %struct.PyMethodDef, ptr %9, i32 0, i32 2
  %11 = load i32, ptr %10, align 8, !tbaa !13
  %12 = and i32 %11, 32
  %13 = icmp ne i32 %12, 0
  br i1 %13, label %14, label %15

14:                                               ; preds = %1
  store ptr null, ptr %2, align 8
  store i32 1, ptr %5, align 4
  br label %19

15:                                               ; preds = %1
  %16 = load ptr, ptr %4, align 8, !tbaa !17
  %17 = getelementptr inbounds nuw %struct.PyCFunctionObject, ptr %16, i32 0, i32 2
  %18 = load ptr, ptr %17, align 8, !tbaa !25
  store ptr %18, ptr %2, align 8
  store i32 1, ptr %5, align 4
  br label %19

19:                                               ; preds = %15, %14
  call void @llvm.lifetime.end.p0(i64 8, ptr %4) #6
  %20 = load ptr, ptr %2, align 8
  ret ptr %20
}

; Function Attrs: inlinehint nounwind uwtable
define internal ptr @cfunction_enter_call(ptr noundef %0, ptr noundef %1) #3 {
  %3 = alloca ptr, align 8
  %4 = alloca ptr, align 8
  %5 = alloca ptr, align 8
  store ptr %0, ptr %4, align 8, !tbaa !32
  store ptr %1, ptr %5, align 8, !tbaa !9
  %6 = load ptr, ptr %4, align 8, !tbaa !32
  %7 = call i32 @_Py_EnterRecursiveCallTstate(ptr noundef %6, ptr noundef @.str.23)
  %8 = icmp ne i32 %7, 0
  br i1 %8, label %9, label %10

9:                                                ; preds = %2
  store ptr null, ptr %3, align 8
  br label %13

10:                                               ; preds = %2
  %11 = load ptr, ptr %5, align 8, !tbaa !9
  %12 = call ptr @PyCFunction_GET_FUNCTION(ptr noundef %11)
  store ptr %12, ptr %3, align 8
  br label %13

13:                                               ; preds = %10, %9
  %14 = load ptr, ptr %3, align 8
  ret ptr %14
}

; Function Attrs: alwaysinline nounwind uwtable
define internal void @Py_DECREF(ptr noundef %0) #4 {
  %2 = alloca ptr, align 8
  store ptr %0, ptr %2, align 8, !tbaa !9
  %3 = load ptr, ptr %2, align 8, !tbaa !9
  %4 = call i32 @_Py_IsImmortal(ptr noundef %3)
  %5 = icmp ne i32 %4, 0
  br i1 %5, label %6, label %7

6:                                                ; preds = %1
  br label %16

7:                                                ; preds = %1
  %8 = load ptr, ptr %2, align 8, !tbaa !9
  %9 = getelementptr inbounds nuw %struct._object, ptr %8, i32 0, i32 0
  %10 = getelementptr inbounds nuw %struct.anon, ptr %9, i32 0, i32 0
  %11 = load i32, ptr %10, align 8, !tbaa !124
  %12 = add i32 %11, -1
  store i32 %12, ptr %10, align 8, !tbaa !124
  %13 = icmp eq i32 %12, 0
  br i1 %13, label %14, label %16

14:                                               ; preds = %7
  %15 = load ptr, ptr %2, align 8, !tbaa !9
  call void @_Py_Dealloc(ptr noundef %15)
  br label %16

16:                                               ; preds = %6, %14, %7
  ret void
}

; Function Attrs: inlinehint nounwind uwtable
define internal i64 @_PyVectorcall_NARGS(i64 noundef %0) #3 {
  %2 = alloca i64, align 8
  store i64 %0, ptr %2, align 8, !tbaa !30
  %3 = load i64, ptr %2, align 8, !tbaa !30
  %4 = and i64 %3, 9223372036854775807
  ret i64 %4
}

; Function Attrs: inlinehint nounwind uwtable
define internal i32 @cfunction_check_kwargs(ptr noundef %0, ptr noundef %1, ptr noundef %2) #3 {
  %4 = alloca i32, align 4
  %5 = alloca ptr, align 8
  %6 = alloca ptr, align 8
  %7 = alloca ptr, align 8
  %8 = alloca ptr, align 8
  store ptr %0, ptr %5, align 8, !tbaa !32
  store ptr %1, ptr %6, align 8, !tbaa !9
  store ptr %2, ptr %7, align 8, !tbaa !9
  %9 = load ptr, ptr %7, align 8, !tbaa !9
  %10 = icmp ne ptr %9, null
  br i1 %10, label %11, label %27

11:                                               ; preds = %3
  %12 = load ptr, ptr %7, align 8, !tbaa !9
  %13 = call i64 @PyTuple_GET_SIZE(ptr noundef %12)
  %14 = icmp ne i64 %13, 0
  br i1 %14, label %15, label %27

15:                                               ; preds = %11
  call void @llvm.lifetime.start.p0(i64 8, ptr %8) #6
  %16 = load ptr, ptr %6, align 8, !tbaa !9
  %17 = call ptr @_PyObject_FunctionStr(ptr noundef %16)
  store ptr %17, ptr %8, align 8, !tbaa !9
  %18 = load ptr, ptr %8, align 8, !tbaa !9
  %19 = icmp ne ptr %18, null
  br i1 %19, label %20, label %26

20:                                               ; preds = %15
  %21 = load ptr, ptr %5, align 8, !tbaa !32
  %22 = load ptr, ptr @PyExc_TypeError, align 8, !tbaa !9
  %23 = load ptr, ptr %8, align 8, !tbaa !9
  %24 = call ptr (ptr, ptr, ptr, ...) @_PyErr_Format(ptr noundef %21, ptr noundef %22, ptr noundef @.str.22, ptr noundef %23)
  %25 = load ptr, ptr %8, align 8, !tbaa !9
  call void @Py_DECREF(ptr noundef %25)
  br label %26

26:                                               ; preds = %20, %15
  store i32 -1, ptr %4, align 4
  call void @llvm.lifetime.end.p0(i64 8, ptr %8) #6
  br label %28

27:                                               ; preds = %11, %3
  store i32 0, ptr %4, align 4
  br label %28

28:                                               ; preds = %27, %26
  %29 = load i32, ptr %4, align 4
  ret i32 %29
}

; Function Attrs: inlinehint nounwind uwtable
define internal ptr @_PyThreadState_GET() #3 {
  %1 = call align 8 ptr @llvm.threadlocal.address.p0(ptr align 8 @_Py_tss_tstate)
  %2 = load ptr, ptr %1, align 8, !tbaa !32
  ret ptr %2
}

; Function Attrs: nounwind uwtable
define internal ptr @cfunction_vectorcall_O(ptr noundef %0, ptr noundef %1, i64 noundef %2, ptr noundef %3) #0 {
  %5 = alloca ptr, align 8
  %6 = alloca ptr, align 8
  %7 = alloca ptr, align 8
  %8 = alloca i64, align 8
  %9 = alloca ptr, align 8
  %10 = alloca ptr, align 8
  %11 = alloca i32, align 4
  %12 = alloca i64, align 8
  %13 = alloca ptr, align 8
  %14 = alloca ptr, align 8
  %15 = alloca ptr, align 8
  store ptr %0, ptr %6, align 8, !tbaa !9
  store ptr %1, ptr %7, align 8, !tbaa !28
  store i64 %2, ptr %8, align 8, !tbaa !30
  store ptr %3, ptr %9, align 8, !tbaa !9
  call void @llvm.lifetime.start.p0(i64 8, ptr %10) #6
  %16 = call ptr @_PyThreadState_GET()
  store ptr %16, ptr %10, align 8, !tbaa !32
  %17 = load ptr, ptr %10, align 8, !tbaa !32
  %18 = load ptr, ptr %6, align 8, !tbaa !9
  %19 = load ptr, ptr %9, align 8, !tbaa !9
  %20 = call i32 @cfunction_check_kwargs(ptr noundef %17, ptr noundef %18, ptr noundef %19)
  %21 = icmp ne i32 %20, 0
  br i1 %21, label %22, label %23

22:                                               ; preds = %4
  store ptr null, ptr %5, align 8
  store i32 1, ptr %11, align 4
  br label %60

23:                                               ; preds = %4
  call void @llvm.lifetime.start.p0(i64 8, ptr %12) #6
  %24 = load i64, ptr %8, align 8, !tbaa !30
  %25 = call i64 @_PyVectorcall_NARGS(i64 noundef %24)
  store i64 %25, ptr %12, align 8, !tbaa !30
  %26 = load i64, ptr %12, align 8, !tbaa !30
  %27 = icmp ne i64 %26, 1
  br i1 %27, label %28, label %41

28:                                               ; preds = %23
  call void @llvm.lifetime.start.p0(i64 8, ptr %13) #6
  %29 = load ptr, ptr %6, align 8, !tbaa !9
  %30 = call ptr @_PyObject_FunctionStr(ptr noundef %29)
  store ptr %30, ptr %13, align 8, !tbaa !9
  %31 = load ptr, ptr %13, align 8, !tbaa !9
  %32 = icmp ne ptr %31, null
  br i1 %32, label %33, label %40

33:                                               ; preds = %28
  %34 = load ptr, ptr %10, align 8, !tbaa !32
  %35 = load ptr, ptr @PyExc_TypeError, align 8, !tbaa !9
  %36 = load ptr, ptr %13, align 8, !tbaa !9
  %37 = load i64, ptr %12, align 8, !tbaa !30
  %38 = call ptr (ptr, ptr, ptr, ...) @_PyErr_Format(ptr noundef %34, ptr noundef %35, ptr noundef @.str.25, ptr noundef %36, i64 noundef %37)
  %39 = load ptr, ptr %13, align 8, !tbaa !9
  call void @Py_DECREF(ptr noundef %39)
  br label %40

40:                                               ; preds = %33, %28
  store ptr null, ptr %5, align 8
  store i32 1, ptr %11, align 4
  call void @llvm.lifetime.end.p0(i64 8, ptr %13) #6
  br label %59

41:                                               ; preds = %23
  call void @llvm.lifetime.start.p0(i64 8, ptr %14) #6
  %42 = load ptr, ptr %10, align 8, !tbaa !32
  %43 = load ptr, ptr %6, align 8, !tbaa !9
  %44 = call ptr @cfunction_enter_call(ptr noundef %42, ptr noundef %43)
  store ptr %44, ptr %14, align 8, !tbaa !17
  %45 = load ptr, ptr %14, align 8, !tbaa !17
  %46 = icmp eq ptr %45, null
  br i1 %46, label %47, label %48

47:                                               ; preds = %41
  store ptr null, ptr %5, align 8
  store i32 1, ptr %11, align 4
  br label %58

48:                                               ; preds = %41
  call void @llvm.lifetime.start.p0(i64 8, ptr %15) #6
  %49 = load ptr, ptr %14, align 8, !tbaa !17
  %50 = load ptr, ptr %6, align 8, !tbaa !9
  %51 = call ptr @PyCFunction_GET_SELF(ptr noundef %50)
  %52 = load ptr, ptr %7, align 8, !tbaa !28
  %53 = getelementptr ptr, ptr %52, i64 0
  %54 = load ptr, ptr %53, align 8, !tbaa !9
  %55 = call ptr %49(ptr noundef %51, ptr noundef %54)
  store ptr %55, ptr %15, align 8, !tbaa !9
  %56 = load ptr, ptr %10, align 8, !tbaa !32
  call void @_Py_LeaveRecursiveCallTstate(ptr noundef %56)
  %57 = load ptr, ptr %15, align 8, !tbaa !9
  store ptr %57, ptr %5, align 8
  store i32 1, ptr %11, align 4
  call void @llvm.lifetime.end.p0(i64 8, ptr %15) #6
  br label %58

58:                                               ; preds = %48, %47
  call void @llvm.lifetime.end.p0(i64 8, ptr %14) #6
  br label %59

59:                                               ; preds = %58, %40
  call void @llvm.lifetime.end.p0(i64 8, ptr %12) #6
  br label %60

60:                                               ; preds = %59, %22
  call void @llvm.lifetime.end.p0(i64 8, ptr %10) #6
  %61 = load ptr, ptr %5, align 8
  ret ptr %61
}