; Function Attrs: nounwind uwtable
define internal ptr @cfunction_vectorcall_O(ptr noundef %0, ptr noundef readonly captures(none) %1, i64 noundef %2, ptr noundef readonly %3) #0 {
  %5 = tail call align 8 ptr @llvm.threadlocal.address.p0(ptr align 8 @_Py_tss_tstate)
  %6 = load ptr, ptr %5, align 8, !tbaa !26
  %.not.i24 = icmp eq ptr %3, null
  br i1 %.not.i24, label %cfunction_check_kwargs.exit, label %7

7:                                                ; preds = %4
  %8 = getelementptr i8, ptr %3, i64 16
  %.val.i = load i64, ptr %8, align 8, !tbaa !109
  %.not9.i = icmp eq i64 %.val.i, 0
  br i1 %.not9.i, label %cfunction_check_kwargs.exit, label %9

9:                                                ; preds = %7
  %10 = tail call ptr @_PyObject_FunctionStr(ptr noundef %0) #5
  %.not10.i = icmp eq ptr %10, null
  br i1 %.not10.i, label %Py_DECREF.exit, label %11

11:                                               ; preds = %9
  %12 = load ptr, ptr @PyExc_TypeError, align 8, !tbaa !11
  %13 = tail call ptr (ptr, ptr, ptr, ...) @_PyErr_Format(ptr noundef %6, ptr noundef %12, ptr noundef nonnull @.str.22, ptr noundef nonnull %10) #5
  %14 = load i32, ptr %10, align 8, !tbaa !14
  %.not.i.i = icmp sgt i32 %14, -1
  br i1 %.not.i.i, label %15, label %Py_DECREF.exit

15:                                               ; preds = %11
  %16 = add nsw i32 %14, -1
  store i32 %16, ptr %10, align 8, !tbaa !14
  %17 = icmp eq i32 %16, 0
  br i1 %17, label %18, label %Py_DECREF.exit

18:                                               ; preds = %15
  tail call void @_Py_Dealloc(ptr noundef nonnull %10) #5
  br label %Py_DECREF.exit

cfunction_check_kwargs.exit:                      ; preds = %7, %4
  %19 = and i64 %2, 9223372036854775807
  %.not22 = icmp eq i64 %19, 1
  br i1 %.not22, label %30, label %20

20:                                               ; preds = %cfunction_check_kwargs.exit
  %21 = tail call ptr @_PyObject_FunctionStr(ptr noundef %0) #5
  %.not23 = icmp eq ptr %21, null
  br i1 %.not23, label %Py_DECREF.exit, label %22

22:                                               ; preds = %20
  %23 = load ptr, ptr @PyExc_TypeError, align 8, !tbaa !11
  %24 = tail call ptr (ptr, ptr, ptr, ...) @_PyErr_Format(ptr noundef %6, ptr noundef %23, ptr noundef nonnull @.str.25, ptr noundef nonnull %21, i64 noundef %19) #5
  %25 = load i32, ptr %21, align 8, !tbaa !14
  %.not.i = icmp sgt i32 %25, -1
  br i1 %.not.i, label %26, label %Py_DECREF.exit

26:                                               ; preds = %22
  %27 = add nsw i32 %25, -1
  store i32 %27, ptr %21, align 8, !tbaa !14
  %28 = icmp eq i32 %27, 0
  br i1 %28, label %29, label %Py_DECREF.exit

29:                                               ; preds = %26
  tail call void @_Py_Dealloc(ptr noundef nonnull %21) #5
  br label %Py_DECREF.exit

30:                                               ; preds = %cfunction_check_kwargs.exit
  %31 = getelementptr inbounds nuw i8, ptr %6, i64 52
  %32 = load i32, ptr %31, align 4, !tbaa !111
  %33 = add i32 %32, -1
  store i32 %33, ptr %31, align 4, !tbaa !111
  %.not.i.i25 = icmp sgt i32 %32, -1
  br i1 %.not.i.i25, label %cfunction_enter_call.exit, label %_Py_EnterRecursiveCallTstate.exit.i

_Py_EnterRecursiveCallTstate.exit.i:              ; preds = %30
  %34 = tail call i32 @_Py_CheckRecursiveCall(ptr noundef nonnull %6, ptr noundef nonnull @.str.23) #5
  %.not4.i = icmp eq i32 %34, 0
  br i1 %.not4.i, label %cfunction_enter_call.exit, label %Py_DECREF.exit

cfunction_enter_call.exit:                        ; preds = %30, %_Py_EnterRecursiveCallTstate.exit.i
  %35 = getelementptr i8, ptr %0, i64 16
  %.val.i27 = load ptr, ptr %35, align 8, !tbaa !22
  %36 = getelementptr i8, ptr %.val.i27, i64 8
  %.val.val.i = load ptr, ptr %36, align 8, !tbaa !112
  %37 = icmp eq ptr %.val.val.i, null
  br i1 %37, label %Py_DECREF.exit, label %38

38:                                               ; preds = %cfunction_enter_call.exit
  %39 = getelementptr inbounds nuw i8, ptr %.val.i27, i64 16
  %40 = load i32, ptr %39, align 8, !tbaa !4
  %41 = and i32 %40, 32
  %.not.i28 = icmp eq i32 %41, 0
  br i1 %.not.i28, label %42, label %PyCFunction_GET_SELF.exit

42:                                               ; preds = %38
  %43 = getelementptr inbounds nuw i8, ptr %0, i64 24
  %44 = load ptr, ptr %43, align 8, !tbaa !23
  br label %PyCFunction_GET_SELF.exit

PyCFunction_GET_SELF.exit:                        ; preds = %38, %42
  %.0.i29 = phi ptr [ %44, %42 ], [ null, %38 ]
  %45 = load ptr, ptr %1, align 8, !tbaa !11
  %46 = tail call ptr %.val.val.i(ptr noundef %.0.i29, ptr noundef %45) #5
  %47 = load i32, ptr %31, align 4, !tbaa !111
  %48 = add i32 %47, 1
  store i32 %48, ptr %31, align 4, !tbaa !111
  br label %Py_DECREF.exit

Py_DECREF.exit:                                   ; preds = %_Py_EnterRecursiveCallTstate.exit.i, %18, %15, %11, %9, %29, %26, %22, %20, %cfunction_enter_call.exit, %PyCFunction_GET_SELF.exit
  %.0 = phi ptr [ null, %20 ], [ %46, %PyCFunction_GET_SELF.exit ], [ null, %cfunction_enter_call.exit ], [ null, %22 ], [ null, %26 ], [ null, %29 ], [ null, %9 ], [ null, %11 ], [ null, %15 ], [ null, %18 ], [ null, %_Py_EnterRecursiveCallTstate.exit.i ]
  ret ptr %.0
}